; Function Attrs: mustprogress uwtable
define void @_ZNK7Imf_3_214TypedAttributeISt6vectorIfSaIfEEE12writeValueToERNS_7OStreamEi(ptr nocapture noundef nonnull readonly align 8 dereferenceable(32) %this, ptr noundef nonnull align 8 dereferenceable(40) %os, i32 %version) unnamed_addr #3 align 2 {
entry:
  %b.i = alloca [4 x i8], align 1
  %_value = getelementptr inbounds i8, ptr %this, i64 8
  %_M_finish.i = getelementptr inbounds i8, ptr %this, i64 16
  %0 = load ptr, ptr %_M_finish.i, align 8
  %1 = load ptr, ptr %_value, align 8
  %sub.ptr.lhs.cast.i = ptrtoint ptr %0 to i64
  %sub.ptr.rhs.cast.i = ptrtoint ptr %1 to i64
  %sub.ptr.sub.i = sub i64 %sub.ptr.lhs.cast.i, %sub.ptr.rhs.cast.i
  %sub.ptr.div.i = lshr exact i64 %sub.ptr.sub.i, 2
  %conv = trunc i64 %sub.ptr.div.i to i32
  %cmp3 = icmp sgt i32 %conv, 0
  br i1 %cmp3, label %for.body.lr.ph, label %for.end

for.body.lr.ph:                                   ; preds = %entry
  %arrayidx2.i = getelementptr inbounds i8, ptr %b.i, i64 1
  %arrayidx5.i = getelementptr inbounds i8, ptr %b.i, i64 2
  %arrayidx8.i = getelementptr inbounds i8, ptr %b.i, i64 3
  %wide.trip.count = and i64 %sub.ptr.div.i, 2147483647
  br label %for.body

for.body:                                         ; preds = %for.body.lr.ph, %for.body
  %indvars.iv = phi i64 [ 0, %for.body.lr.ph ], [ %indvars.iv.next, %for.body ]
  %2 = load ptr, ptr %_value, align 8
  %add.ptr.i = getelementptr inbounds float, ptr %2, i64 %indvars.iv
  %3 = load i32, ptr %add.ptr.i, align 4
  call void @llvm.lifetime.start.p0(i64 4, ptr nonnull %b.i)
  %conv.i = trunc i32 %3 to i8
  store i8 %conv.i, ptr %b.i, align 1
  %shr.i = lshr i32 %3, 8
  %conv1.i = trunc i32 %shr.i to i8
  store i8 %conv1.i, ptr %arrayidx2.i, align 1
  %shr3.i = lshr i32 %3, 16
  %conv4.i = trunc i32 %shr3.i to i8
  store i8 %conv4.i, ptr %arrayidx5.i, align 1
  %shr6.i = lshr i32 %3, 24
  %conv7.i = trunc i32 %shr6.i to i8
  store i8 %conv7.i, ptr %arrayidx8.i, align 1
  %vtable.i.i.i = load ptr, ptr %os, align 8
  %vfn.i.i.i = getelementptr inbounds i8, ptr %vtable.i.i.i, i64 16
  %4 = load ptr, ptr %vfn.i.i.i, align 8
  call void %4(ptr noundef nonnull align 8 dereferenceable(40) %os, ptr noundef nonnull %b.i, i32 noundef 4)
  call void @llvm.lifetime.end.p0(i64 4, ptr nonnull %b.i)
  %indvars.iv.next = add nuw nsw i64 %indvars.iv, 1
  %exitcond.not = icmp eq i64 %indvars.iv.next, %wide.trip.count
  br i1 %exitcond.not, label %for.end, label %for.body, !llvm.loop !4

for.end:                                          ; preds = %for.body, %entry
  ret void
}